target datalayout = "e-m:e-p270:32:32-p271:32:32-p272:64:64-i64:64-i128:128-f80:128-n8:16:32:64-S128"
target triple = "x86_64-pc-linux-gnu"

%struct.t_nextnb = type { i32, i32, ptr, ptr }

@.str = private unnamed_addr constant [7 x i8] c"nnb->a\00", align 1
@.str.1 = private unnamed_addr constant [134 x i8] c"generated/home/dtcxzyw/WorkSpace/Projects/compilers/llvm-opt-benchmark/bench/gromacs/gromacs/src/gromacs/gmxpreprocess/gpp_nextnb.cpp\00", align 1
@.str.2 = private unnamed_addr constant [12 x i8] c"nnb->nrexcl\00", align 1
@.str.3 = private unnamed_addr constant [10 x i8] c"nnb->a[i]\00", align 1
@.str.4 = private unnamed_addr constant [15 x i8] c"nnb->nrexcl[i]\00", align 1

; Function Attrs: inlinehint mustprogress uwtable
define internal void @_ZL13gmx_snew_implIiEvPKcS1_iRPT_m(ptr noundef %0, ptr noundef %1, i32 noundef %2, ptr noundef nonnull align 8 dereferenceable(8) %3, i64 noundef %4) #2 {
  %6 = alloca ptr, align 8
  %7 = alloca ptr, align 8
  %8 = alloca i32, align 4
  %9 = alloca ptr, align 8
  %10 = alloca i64, align 8
  store ptr %0, ptr %6, align 8, !tbaa !22
  store ptr %1, ptr %7, align 8, !tbaa !22
  store i32 %2, ptr %8, align 4, !tbaa !9
  store ptr %3, ptr %9, align 8, !tbaa !30
  store i64 %4, ptr %10, align 8, !tbaa !27
  %11 = load ptr, ptr %6, align 8, !tbaa !22
  %12 = load ptr, ptr %7, align 8, !tbaa !22
  %13 = load i32, ptr %8, align 4, !tbaa !9
  %14 = load i64, ptr %10, align 8, !tbaa !27
  %15 = call noundef ptr @_Z11save_callocPKcS0_imm(ptr noundef %11, ptr noundef %12, i32 noundef %13, i64 noundef %14, i64 noundef 4)
  %16 = load ptr, ptr %9, align 8, !tbaa !30
  store ptr %15, ptr %16, align 8, !tbaa !31
  ret void
}

; Function Attrs: inlinehint mustprogress uwtable
define internal void @_ZL13gmx_snew_implIPiEvPKcS2_iRPT_m(ptr noundef %0, ptr noundef %1, i32 noundef %2, ptr noundef nonnull align 8 dereferenceable(8) %3, i64 noundef %4) #2 {
  %6 = alloca ptr, align 8
  %7 = alloca ptr, align 8
  %8 = alloca i32, align 4
  %9 = alloca ptr, align 8
  %10 = alloca i64, align 8
  store ptr %0, ptr %6, align 8, !tbaa !22
  store ptr %1, ptr %7, align 8, !tbaa !22
  store i32 %2, ptr %8, align 4, !tbaa !9
  store ptr %3, ptr %9, align 8, !tbaa !29
  store i64 %4, ptr %10, align 8, !tbaa !27
  %11 = load ptr, ptr %6, align 8, !tbaa !22
  %12 = load ptr, ptr %7, align 8, !tbaa !22
  %13 = load i32, ptr %8, align 4, !tbaa !9
  %14 = load i64, ptr %10, align 8, !tbaa !27
  %15 = call noundef ptr @_Z11save_callocPKcS0_imm(ptr noundef %11, ptr noundef %12, i32 noundef %13, i64 noundef %14, i64 noundef 8)
  %16 = load ptr, ptr %9, align 8, !tbaa !29
  store ptr %15, ptr %16, align 8, !tbaa !30
  ret void
}

; Function Attrs: inlinehint mustprogress uwtable
define internal void @_ZL13gmx_snew_implIPPiEvPKcS3_iRPT_m(ptr noundef %0, ptr noundef %1, i32 noundef %2, ptr noundef nonnull align 8 dereferenceable(8) %3, i64 noundef %4) #2 {
  %6 = alloca ptr, align 8
  %7 = alloca ptr, align 8
  %8 = alloca i32, align 4
  %9 = alloca ptr, align 8
  %10 = alloca i64, align 8
  store ptr %0, ptr %6, align 8, !tbaa !22
  store ptr %1, ptr %7, align 8, !tbaa !22
  store i32 %2, ptr %8, align 4, !tbaa !9
  store ptr %3, ptr %9, align 8, !tbaa !24
  store i64 %4, ptr %10, align 8, !tbaa !27
  %11 = load ptr, ptr %6, align 8, !tbaa !22
  %12 = load ptr, ptr %7, align 8, !tbaa !22
  %13 = load i32, ptr %8, align 4, !tbaa !9
  %14 = load i64, ptr %10, align 8, !tbaa !27
  %15 = call noundef ptr @_Z11save_callocPKcS0_imm(ptr noundef %11, ptr noundef %12, i32 noundef %13, i64 noundef %14, i64 noundef 8)
  %16 = load ptr, ptr %9, align 8, !tbaa !24
  store ptr %15, ptr %16, align 8, !tbaa !29
  ret void
}

; Function Attrs: mustprogress uwtable
define void @_Z8init_nnbP8t_nextnbii(ptr noundef %0, i32 noundef %1, i32 noundef %2) #0 {
  %4 = alloca ptr, align 8
  %5 = alloca i32, align 4
  %6 = alloca i32, align 4
  %7 = alloca i32, align 4
  store ptr %0, ptr %4, align 8, !tbaa !4
  store i32 %1, ptr %5, align 4, !tbaa !9
  store i32 %2, ptr %6, align 4, !tbaa !9
  call void @llvm.lifetime.start.p0(i64 4, ptr %7) #14
  %8 = load i32, ptr %5, align 4, !tbaa !9
  %9 = load ptr, ptr %4, align 8, !tbaa !4
  %10 = getelementptr inbounds nuw %struct.t_nextnb, ptr %9, i32 0, i32 0
  store i32 %8, ptr %10, align 8, !tbaa !11
  %11 = load i32, ptr %6, align 4, !tbaa !9
  %12 = load ptr, ptr %4, align 8, !tbaa !4
  %13 = getelementptr inbounds nuw %struct.t_nextnb, ptr %12, i32 0, i32 1
  store i32 %11, ptr %13, align 4, !tbaa !17
  %14 = load ptr, ptr %4, align 8, !tbaa !4
  %15 = getelementptr inbounds nuw %struct.t_nextnb, ptr %14, i32 0, i32 3
  %16 = load i32, ptr %5, align 4, !tbaa !9
  %17 = sext i32 %16 to i64
  call void @_ZL13gmx_snew_implIPPiEvPKcS3_iRPT_m(ptr noundef @.str, ptr noundef @.str.1, i32 noundef 114, ptr noundef nonnull align 8 dereferenceable(8) %15, i64 noundef %17)
  %18 = load ptr, ptr %4, align 8, !tbaa !4
  %19 = getelementptr inbounds nuw %struct.t_nextnb, ptr %18, i32 0, i32 2
  %20 = load i32, ptr %5, align 4, !tbaa !9
  %21 = sext i32 %20 to i64
  call void @_ZL13gmx_snew_implIPiEvPKcS2_iRPT_m(ptr noundef @.str.2, ptr noundef @.str.1, i32 noundef 115, ptr noundef nonnull align 8 dereferenceable(8) %19, i64 noundef %21)
  store i32 0, ptr %7, align 4, !tbaa !9
  br label %22

22:                                               ; preds = %45, %3
  %23 = load i32, ptr %7, align 4, !tbaa !9
  %24 = load i32, ptr %5, align 4, !tbaa !9
  %25 = icmp slt i32 %23, %24
  br i1 %25, label %26, label %48

26:                                               ; preds = %22
  %27 = load ptr, ptr %4, align 8, !tbaa !4
  %28 = getelementptr inbounds nuw %struct.t_nextnb, ptr %27, i32 0, i32 3
  %29 = load ptr, ptr %28, align 8, !tbaa !18
  %30 = load i32, ptr %7, align 4, !tbaa !9
  %31 = sext i32 %30 to i64
  %32 = getelementptr inbounds ptr, ptr %29, i64 %31
  %33 = load i32, ptr %6, align 4, !tbaa !9
  %34 = add nsw i32 %33, 1
  %35 = sext i32 %34 to i64
  call void @_ZL13gmx_snew_implIPiEvPKcS2_iRPT_m(ptr noundef @.str.3, ptr noundef @.str.1, i32 noundef 118, ptr noundef nonnull align 8 dereferenceable(8) %32, i64 noundef %35)
  %36 = load ptr, ptr %4, align 8, !tbaa !4
  %37 = getelementptr inbounds nuw %struct.t_nextnb, ptr %36, i32 0, i32 2
  %38 = load ptr, ptr %37, align 8, !tbaa !19
  %39 = load i32, ptr %7, align 4, !tbaa !9
  %40 = sext i32 %39 to i64
  %41 = getelementptr inbounds ptr, ptr %38, i64 %40
  %42 = load i32, ptr %6, align 4, !tbaa !9
  %43 = add nsw i32 %42, 1
  %44 = sext i32 %43 to i64
  call void @_ZL13gmx_snew_implIiEvPKcS1_iRPT_m(ptr noundef @.str.4, ptr noundef @.str.1, i32 noundef 119, ptr noundef nonnull align 8 dereferenceable(8) %41, i64 noundef %44)
  br label %45

45:                                               ; preds = %26
  %46 = load i32, ptr %7, align 4, !tbaa !9
  %47 = add nsw i32 %46, 1
  store i32 %47, ptr %7, align 4, !tbaa !9
  br label %22, !llvm.loop !20

48:                                               ; preds = %22
  call void @llvm.lifetime.end.p0(i64 4, ptr %7) #14
  ret void
}