; Function Attrs: mustprogress uwtable
define void @_Z8init_nnbP8t_nextnbii(ptr noundef captures(none) initializes((0, 24)) %0, i32 noundef %1, i32 noundef %2) local_unnamed_addr #0 {
  store i32 %1, ptr %0, align 8, !tbaa !4
  %4 = getelementptr inbounds nuw i8, ptr %0, i64 4
  store i32 %2, ptr %4, align 4, !tbaa !14
  %5 = getelementptr inbounds nuw i8, ptr %0, i64 16
  %6 = sext i32 %1 to i64
  %7 = tail call noundef ptr @_Z11save_callocPKcS0_imm(ptr noundef nonnull @.str, ptr noundef nonnull @.str.1, i32 noundef 114, i64 noundef range(i64 -2147483648, 2147483648) %6, i64 noundef 8)
  store ptr %7, ptr %5, align 8, !tbaa !15
  %8 = getelementptr inbounds nuw i8, ptr %0, i64 8
  %9 = tail call noundef ptr @_Z11save_callocPKcS0_imm(ptr noundef nonnull @.str.2, ptr noundef nonnull @.str.1, i32 noundef 115, i64 noundef range(i64 -2147483648, 2147483648) %6, i64 noundef 8)
  store ptr %9, ptr %8, align 8, !tbaa !16
  %10 = icmp sgt i32 %1, 0
  br i1 %10, label %.lr.ph, label %._crit_edge

.lr.ph:                                           ; preds = %3
  %11 = add nsw i32 %2, 1
  %12 = sext i32 %11 to i64
  %wide.trip.count = zext nneg i32 %1 to i64
  br label %13

13:                                               ; preds = %.lr.ph, %13
  %indvars.iv = phi i64 [ 0, %.lr.ph ], [ %indvars.iv.next, %13 ]
  %14 = load ptr, ptr %5, align 8, !tbaa !17
  %15 = getelementptr inbounds nuw ptr, ptr %14, i64 %indvars.iv
  %16 = tail call noundef ptr @_Z11save_callocPKcS0_imm(ptr noundef nonnull @.str.3, ptr noundef nonnull @.str.1, i32 noundef 118, i64 noundef range(i64 -2147483648, 2147483648) %12, i64 noundef 8)
  store ptr %16, ptr %15, align 8, !tbaa !16
  %17 = load ptr, ptr %8, align 8, !tbaa !18
  %18 = getelementptr inbounds nuw ptr, ptr %17, i64 %indvars.iv
  %19 = tail call noundef ptr @_Z11save_callocPKcS0_imm(ptr noundef nonnull @.str.4, ptr noundef nonnull @.str.1, i32 noundef 119, i64 noundef range(i64 -2147483647, 2147483648) %12, i64 noundef 4)
  store ptr %19, ptr %18, align 8, !tbaa !19
  %indvars.iv.next = add nuw nsw i64 %indvars.iv, 1
  %exitcond.not = icmp eq i64 %indvars.iv.next, %wide.trip.count
  br i1 %exitcond.not, label %._crit_edge, label %13, !llvm.loop !21

._crit_edge:                                      ; preds = %13, %3
  ret void
}